target datalayout = "e-m:e-p270:32:32-p271:32:32-p272:64:64-i64:64-i128:128-f80:128-n8:16:32:64-S128"
target triple = "x86_64-unknown-linux-gnu"

%"class.Assimp::Compression" = type { ptr }
%"struct.Assimp::Compression::impl" = type <{ i8, [7 x i8], %struct.z_stream_s, i32, [4 x i8] }>
%struct.z_stream_s = type { ptr, i32, i64, ptr, i32, i64, ptr, ptr, ptr, ptr, ptr, i32, i64, i64 }

; Function Attrs: mustprogress uwtable
define hidden noundef zeroext i1 @_ZN6Assimp11Compression5closeEv(ptr noundef nonnull align 8 dereferenceable(8) %this) #2 align 2 {
entry:
  %retval = alloca i1, align 1
  %this.addr = alloca ptr, align 8
  store ptr %this, ptr %this.addr, align 8
  %this1 = load ptr, ptr %this.addr, align 8
  %mImpl = getelementptr inbounds %"class.Assimp::Compression", ptr %this1, i32 0, i32 0
  %0 = load ptr, ptr %mImpl, align 8
  %mOpen = getelementptr inbounds %"struct.Assimp::Compression::impl", ptr %0, i32 0, i32 0
  %1 = load i8, ptr %mOpen, align 8
  %tobool = trunc i8 %1 to i1
  br i1 %tobool, label %if.end, label %if.then

if.then:                                          ; preds = %entry
  store i1 false, ptr %retval, align 1
  br label %return

if.end:                                           ; preds = %entry
  %mImpl2 = getelementptr inbounds %"class.Assimp::Compression", ptr %this1, i32 0, i32 0
  %2 = load ptr, ptr %mImpl2, align 8
  %mZSstream = getelementptr inbounds %"struct.Assimp::Compression::impl", ptr %2, i32 0, i32 2
  %call = call i32 @inflateEnd(ptr noundef %mZSstream)
  %mImpl3 = getelementptr inbounds %"class.Assimp::Compression", ptr %this1, i32 0, i32 0
  %3 = load ptr, ptr %mImpl3, align 8
  %mOpen4 = getelementptr inbounds %"struct.Assimp::Compression::impl", ptr %3, i32 0, i32 0
  store i8 0, ptr %mOpen4, align 8
  store i1 true, ptr %retval, align 1
  br label %return

return:                                           ; preds = %if.end, %if.then
  %4 = load i1, ptr %retval, align 1
  ret i1 %4
}