; Function Attrs: mustprogress uwtable
define hidden noundef zeroext i1 @_ZN6Assimp11Compression5closeEv(ptr nocapture noundef nonnull readonly align 8 dereferenceable(8) %this) local_unnamed_addr #0 align 2 {
entry:
  %0 = load ptr, ptr %this, align 8
  %1 = load i8, ptr %0, align 8
  %2 = and i8 %1, 1
  %tobool.not = icmp ne i8 %2, 0
  br i1 %tobool.not, label %if.end, label %return

if.end:                                           ; preds = %entry
  %mZSstream = getelementptr inbounds i8, ptr %0, i64 8
  %call = tail call i32 @inflateEnd(ptr noundef nonnull %mZSstream)
  %3 = load ptr, ptr %this, align 8
  store i8 0, ptr %3, align 8
  br label %return

return:                                           ; preds = %entry, %if.end
  ret i1 %tobool.not
}